target datalayout = "e-m:e-p270:32:32-p271:32:32-p272:64:64-i64:64-i128:128-f80:128-n8:16:32:64-S128"
target triple = "x86_64-pc-linux-gnu"

%struct._packet_info = type { ptr, ptr, i32, i32, %struct.nstime_t, %struct.nstime_t, %struct.nstime_t, i8, ptr, ptr, ptr, ptr, %struct._address, %struct._address, %struct._address, %struct._address, %struct._address, %struct._address, i32, ptr, i8, [3 x i8], %struct.anon, i32, i32, i32, i32, ptr, i8, ptr, ptr, i16, i16, i32, i32, i16, i32, i32, ptr, ptr, ptr, i8, i8, i16, i16, i16, i32, i16, i16, ptr, ptr, ptr, ptr, ptr, i32, i32 }
%struct.nstime_t = type { i64, i32 }
%struct._address = type { i32, i32, ptr, ptr }
%struct.anon = type { i8, [3 x i8] }
%struct.dccp_analysis = type { %struct._dccp_flow_t, %struct._dccp_flow_t, ptr, ptr, i32, %struct.nstime_t, %struct.nstime_t }
%struct._dccp_flow_t = type { i8, i64 }

@.str.279 = private unnamed_addr constant [18 x i8] c"dccp.stream eq %u\00", align 1

; Function Attrs: null_pointer_is_valid sspstrong uwtable
define internal ptr @dccp_follow_conv_filter(ptr noundef %0, ptr noundef %1, ptr noundef %2, ptr noundef %3) #1 {
  %5 = alloca ptr, align 8
  %6 = alloca ptr, align 8
  %7 = alloca ptr, align 8
  %8 = alloca ptr, align 8
  %9 = alloca ptr, align 8
  %10 = alloca ptr, align 8
  %11 = alloca ptr, align 8
  %12 = alloca i32, align 4
  store ptr %0, ptr %6, align 8
  store ptr %1, ptr %7, align 8
  store ptr %2, ptr %8, align 8
  store ptr %3, ptr %9, align 8
  call void @llvm.lifetime.start.p0(i64 8, ptr %10) #11
  call void @llvm.lifetime.start.p0(i64 8, ptr %11) #11
  %13 = load ptr, ptr %7, align 8
  %14 = getelementptr inbounds nuw %struct._packet_info, ptr %13, i32 0, i32 14
  %15 = getelementptr inbounds nuw %struct._address, ptr %14, i32 0, i32 0
  %16 = load i32, ptr %15, align 8
  %17 = icmp eq i32 %16, 2
  br i1 %17, label %18, label %24

18:                                               ; preds = %4
  %19 = load ptr, ptr %7, align 8
  %20 = getelementptr inbounds nuw %struct._packet_info, ptr %19, i32 0, i32 15
  %21 = getelementptr inbounds nuw %struct._address, ptr %20, i32 0, i32 0
  %22 = load i32, ptr %21, align 8
  %23 = icmp eq i32 %22, 2
  br i1 %23, label %36, label %24

24:                                               ; preds = %18, %4
  %25 = load ptr, ptr %7, align 8
  %26 = getelementptr inbounds nuw %struct._packet_info, ptr %25, i32 0, i32 14
  %27 = getelementptr inbounds nuw %struct._address, ptr %26, i32 0, i32 0
  %28 = load i32, ptr %27, align 8
  %29 = icmp eq i32 %28, 3
  br i1 %29, label %30, label %69

30:                                               ; preds = %24
  %31 = load ptr, ptr %7, align 8
  %32 = getelementptr inbounds nuw %struct._packet_info, ptr %31, i32 0, i32 15
  %33 = getelementptr inbounds nuw %struct._address, ptr %32, i32 0, i32 0
  %34 = load i32, ptr %33, align 8
  %35 = icmp eq i32 %34, 3
  br i1 %35, label %36, label %69

36:                                               ; preds = %30, %18
  %37 = load ptr, ptr %7, align 8
  %38 = getelementptr inbounds nuw %struct._packet_info, ptr %37, i32 0, i32 23
  %39 = load i32, ptr %38, align 8
  %40 = icmp eq i32 %39, 4
  br i1 %40, label %41, label %69

41:                                               ; preds = %36
  %42 = load ptr, ptr %7, align 8
  %43 = getelementptr inbounds nuw %struct._packet_info, ptr %42, i32 0, i32 3
  %44 = load i32, ptr %43, align 4
  %45 = load ptr, ptr %7, align 8
  %46 = getelementptr inbounds nuw %struct._packet_info, ptr %45, i32 0, i32 14
  %47 = load ptr, ptr %7, align 8
  %48 = getelementptr inbounds nuw %struct._packet_info, ptr %47, i32 0, i32 15
  %49 = load ptr, ptr %7, align 8
  %50 = getelementptr inbounds nuw %struct._packet_info, ptr %49, i32 0, i32 24
  %51 = load i32, ptr %50, align 4
  %52 = load ptr, ptr %7, align 8
  %53 = getelementptr inbounds nuw %struct._packet_info, ptr %52, i32 0, i32 25
  %54 = load i32, ptr %53, align 8
  %55 = call ptr @find_conversation(i32 noundef %44, ptr noundef %46, ptr noundef %48, i32 noundef 4, i32 noundef %51, i32 noundef %54, i32 noundef 0)
  store ptr %55, ptr %10, align 8
  %56 = icmp ne ptr %55, null
  br i1 %56, label %57, label %69

57:                                               ; preds = %41
  %58 = load ptr, ptr %10, align 8
  %59 = load ptr, ptr %7, align 8
  %60 = call ptr @get_dccp_conversation_data(ptr noundef %58, ptr noundef %59)
  store ptr %60, ptr %11, align 8
  %61 = load ptr, ptr %11, align 8
  %62 = getelementptr inbounds nuw %struct.dccp_analysis, ptr %61, i32 0, i32 4
  %63 = load i32, ptr %62, align 8
  %64 = load ptr, ptr %8, align 8
  store i32 %63, ptr %64, align 4
  %65 = load ptr, ptr %11, align 8
  %66 = getelementptr inbounds nuw %struct.dccp_analysis, ptr %65, i32 0, i32 4
  %67 = load i32, ptr %66, align 8
  %68 = call noalias ptr (ptr, ptr, ...) @wmem_strdup_printf(ptr noundef null, ptr noundef @.str.279, i32 noundef %67)
  store ptr %68, ptr %5, align 8
  store i32 1, ptr %12, align 4
  br label %70

69:                                               ; preds = %41, %36, %30, %24
  store ptr null, ptr %5, align 8
  store i32 1, ptr %12, align 4
  br label %70

70:                                               ; preds = %69, %57
  call void @llvm.lifetime.end.p0(i64 8, ptr %11) #11
  call void @llvm.lifetime.end.p0(i64 8, ptr %10) #11
  %71 = load ptr, ptr %5, align 8
  ret ptr %71
}