; Function Attrs: null_pointer_is_valid sspstrong uwtable
define internal noalias ptr @dccp_follow_conv_filter(ptr readnone captures(none) %0, ptr noundef %1, ptr noundef writeonly captures(none) %2, ptr readnone captures(none) %3) #1 {
  %5 = getelementptr inbounds nuw i8, ptr %1, i64 160
  %6 = load i32, ptr %5, align 8
  switch i32 %6, label %.thread [
    i32 2, label %7
    i32 3, label %11
  ]

7:                                                ; preds = %4
  %8 = getelementptr inbounds nuw i8, ptr %1, i64 184
  %9 = load i32, ptr %8, align 8
  %10 = icmp eq i32 %9, 2
  br i1 %10, label %15, label %.thread

11:                                               ; preds = %4
  %12 = getelementptr inbounds nuw i8, ptr %1, i64 184
  %13 = load i32, ptr %12, align 8
  %14 = icmp eq i32 %13, 3
  br i1 %14, label %15, label %.thread

15:                                               ; preds = %11, %7
  %16 = getelementptr inbounds nuw i8, ptr %1, i64 280
  %17 = load i32, ptr %16, align 8
  %18 = icmp eq i32 %17, 4
  br i1 %18, label %19, label %.thread

19:                                               ; preds = %15
  %20 = getelementptr inbounds nuw i8, ptr %1, i64 20
  %21 = load i32, ptr %20, align 4
  %22 = getelementptr inbounds nuw i8, ptr %1, i64 184
  %23 = getelementptr inbounds nuw i8, ptr %1, i64 284
  %24 = load i32, ptr %23, align 4
  %25 = getelementptr inbounds nuw i8, ptr %1, i64 288
  %26 = load i32, ptr %25, align 8
  %27 = tail call ptr @find_conversation(i32 noundef %21, ptr noundef nonnull %5, ptr noundef nonnull %22, i32 noundef 4, i32 noundef %24, i32 noundef %26, i32 noundef 0)
  %.not = icmp eq ptr %27, null
  br i1 %.not, label %.thread, label %28

28:                                               ; preds = %19
  %29 = tail call fastcc ptr @get_dccp_conversation_data(ptr noundef nonnull %27, ptr noundef %1)
  %30 = getelementptr inbounds nuw i8, ptr %29, i64 48
  %31 = load i32, ptr %30, align 8
  store i32 %31, ptr %2, align 4
  %32 = tail call noalias ptr (ptr, ptr, ...) @wmem_strdup_printf(ptr noundef null, ptr noundef nonnull @.str.279, i32 noundef %31)
  br label %.thread

.thread:                                          ; preds = %4, %7, %11, %15, %19, %28
  %.0 = phi ptr [ %32, %28 ], [ null, %19 ], [ null, %15 ], [ null, %11 ], [ null, %7 ], [ null, %4 ]
  ret ptr %.0
}